; Function Attrs: mustprogress nounwind uwtable
define dso_local noundef zeroext i1 @_ZN5clang6format19UnwrappedLineParser20tryToParseChildBlockEv(ptr noundef nonnull align 8 dereferenceable(3592) %0) local_unnamed_addr #0 align 2 {
  tail call void @_ZN5clang6format19UnwrappedLineParser9nextTokenEi(ptr noundef nonnull align 8 dereferenceable(3592) %0, i32 noundef 0)
  %2 = getelementptr inbounds nuw i8, ptr %0, i64 984
  %3 = load ptr, ptr %2, align 8
  %4 = getelementptr inbounds nuw i8, ptr %3, i64 16
  %5 = load i16, ptr %4, align 8
  %.not = icmp eq i16 %5, 24
  br i1 %.not, label %6, label %7

6:                                                ; preds = %1
  tail call void @_ZN5clang6format19UnwrappedLineParser15parseChildBlockEv(ptr noundef nonnull align 8 dereferenceable(3592) %0)
  br label %7

7:                                                ; preds = %1, %6
  ret i1 %.not
}